; Function Attrs: nounwind uwtable
define internal void @aes_siv_cleanup(ptr noundef %0) #1 {
  %2 = getelementptr inbounds nuw i8, ptr %0, i64 24
  %3 = tail call i32 @ossl_siv128_cleanup(ptr noundef nonnull %2) #5
  %4 = getelementptr inbounds nuw i8, ptr %0, i64 96
  %5 = load ptr, ptr %4, align 8, !tbaa !17
  tail call void @EVP_CIPHER_free(ptr noundef %5) #5
  %6 = getelementptr inbounds nuw i8, ptr %0, i64 88
  %7 = load ptr, ptr %6, align 8, !tbaa !18
  tail call void @EVP_CIPHER_free(ptr noundef %7) #5
  ret void
}